target datalayout = "e-m:e-p270:32:32-p271:32:32-p272:64:64-i64:64-i128:128-f80:128-n8:16:32:64-S128"
target triple = "x86_64-pc-linux-gnu"

%"class.gmx::FreeEnergyPerturbationData::Element" = type <{ %"class.gmx::ISimulatorElement", %"class.gmx::ICheckpointHelperClient", %"class.gmx::IDomDecHelperClient", ptr, i8, [7 x i8], %"class.std::optional.17", i32, i8, [3 x i8] }>
%"class.gmx::ISimulatorElement" = type { ptr }
%"class.gmx::ICheckpointHelperClient" = type { ptr }
%"class.gmx::IDomDecHelperClient" = type { ptr }
%"class.std::optional.17" = type { %"struct.std::_Optional_base.18" }
%"struct.std::_Optional_base.18" = type { %"struct.std::_Optional_payload.20" }
%"struct.std::_Optional_payload.20" = type { %"struct.std::_Optional_payload_base.base.22", [7 x i8] }
%"struct.std::_Optional_payload_base.base.22" = type <{ %"union.std::_Optional_payload_base<gmx::FepStateSetting>::_Storage", i8 }>
%"union.std::_Optional_payload_base<gmx::FepStateSetting>::_Storage" = type { %"class.gmx::FepStateSetting" }
%"class.gmx::FepStateSetting" = type { i64, i32, i64 }
%"struct.std::_Optional_payload_base.21" = type <{ %"union.std::_Optional_payload_base<gmx::FepStateSetting>::_Storage", i8, [7 x i8] }>

@_ZTVN3gmx19IDomDecHelperClientE = linkonce_odr unnamed_addr constant { [5 x ptr] } { [5 x ptr] [ptr null, ptr @_ZTIN3gmx19IDomDecHelperClientE, ptr @_ZN3gmx19IDomDecHelperClientD2Ev, ptr @_ZN3gmx19IDomDecHelperClientD0Ev, ptr @__cxa_pure_virtual] }, comdat, align 8

; Function Attrs: mustprogress nounwind uwtable
define linkonce_odr void @_ZNSt22_Optional_payload_baseIN3gmx15FepStateSettingEE8_StorageIS1_Lb1EEC2Ev(ptr noundef nonnull align 8 dereferenceable(24) %0) unnamed_addr #1 comdat align 2 {
  %2 = alloca ptr, align 8
  store ptr %0, ptr %2, align 8, !tbaa !706
  ret void
}

; Function Attrs: mustprogress nounwind uwtable
define linkonce_odr void @_ZNSt22_Optional_payload_baseIN3gmx15FepStateSettingEEC2Ev(ptr noundef nonnull align 8 dereferenceable(25) %0) unnamed_addr #1 comdat align 2 {
  %2 = alloca ptr, align 8
  store ptr %0, ptr %2, align 8, !tbaa !267
  %3 = load ptr, ptr %2, align 8
  %4 = getelementptr inbounds nuw %"struct.std::_Optional_payload_base.21", ptr %3, i32 0, i32 0
  call void @_ZNSt22_Optional_payload_baseIN3gmx15FepStateSettingEE8_StorageIS1_Lb1EEC2Ev(ptr noundef nonnull align 8 dereferenceable(24) %4) #22
  %5 = getelementptr inbounds nuw %"struct.std::_Optional_payload_base.21", ptr %3, i32 0, i32 1
  store i8 0, ptr %5, align 8, !tbaa !266
  ret void
}

; Function Attrs: mustprogress nounwind uwtable
define linkonce_odr void @_ZNSt17_Optional_payloadIN3gmx15FepStateSettingELb1ELb1ELb1EEC2Ev(ptr noundef nonnull align 8 dereferenceable(25) %0) unnamed_addr #1 comdat align 2 {
  %2 = alloca ptr, align 8
  store ptr %0, ptr %2, align 8, !tbaa !704
  %3 = load ptr, ptr %2, align 8
  call void @_ZNSt22_Optional_payload_baseIN3gmx15FepStateSettingEEC2Ev(ptr noundef nonnull align 8 dereferenceable(25) %3) #22
  ret void
}

; Function Attrs: mustprogress nounwind uwtable
define linkonce_odr void @_ZNSt14_Optional_baseIN3gmx15FepStateSettingELb1ELb1EEC2Ev(ptr noundef nonnull align 8 dereferenceable(32) %0) unnamed_addr #1 comdat align 2 {
  %2 = alloca ptr, align 8
  store ptr %0, ptr %2, align 8, !tbaa !702
  %3 = load ptr, ptr %2, align 8
  %4 = getelementptr inbounds nuw %"struct.std::_Optional_base.18", ptr %3, i32 0, i32 0
  call void @_ZNSt17_Optional_payloadIN3gmx15FepStateSettingELb1ELb1ELb1EEC2Ev(ptr noundef nonnull align 8 dereferenceable(25) %4) #22
  ret void
}

; Function Attrs: mustprogress nounwind uwtable
define linkonce_odr void @_ZNSt8optionalIN3gmx15FepStateSettingEEC2Ev(ptr noundef nonnull align 8 dereferenceable(32) %0) unnamed_addr #1 comdat align 2 {
  %2 = alloca ptr, align 8
  store ptr %0, ptr %2, align 8, !tbaa !251
  %3 = load ptr, ptr %2, align 8
  call void @_ZNSt14_Optional_baseIN3gmx15FepStateSettingELb1ELb1EEC2Ev(ptr noundef nonnull align 8 dereferenceable(32) %3) #22
  ret void
}

; Function Attrs: inlinehint mustprogress nounwind uwtable
define linkonce_odr void @_ZN3gmx19IDomDecHelperClientC2Ev(ptr noundef nonnull align 8 dereferenceable(8) %0) unnamed_addr #2 comdat align 2 {
  %2 = alloca ptr, align 8
  store ptr %0, ptr %2, align 8, !tbaa !700
  %3 = load ptr, ptr %2, align 8
  store ptr getelementptr inbounds inrange(-16, 24) ({ [5 x ptr] }, ptr @_ZTVN3gmx19IDomDecHelperClientE, i32 0, i32 0, i32 2), ptr %3, align 8, !tbaa !439
  ret void
}

; Function Attrs: inlinehint mustprogress nounwind uwtable
define linkonce_odr void @_ZN3gmx23ICheckpointHelperClientC2Ev(ptr noundef nonnull align 8 dereferenceable(8) %0) unnamed_addr #2 comdat align 2 {
  %2 = alloca ptr, align 8
  store ptr %0, ptr %2, align 8, !tbaa !698
  %3 = load ptr, ptr %2, align 8
  store ptr getelementptr inbounds inrange(-16, 40) ({ [7 x ptr] }, ptr @_ZTVN3gmx23ICheckpointHelperClientE, i32 0, i32 0, i32 2), ptr %3, align 8, !tbaa !439
  ret void
}

; Function Attrs: inlinehint mustprogress nounwind uwtable
define linkonce_odr void @_ZN3gmx17ISimulatorElementC2Ev(ptr noundef nonnull align 8 dereferenceable(8) %0) unnamed_addr #2 comdat align 2 {
  %2 = alloca ptr, align 8
  store ptr %0, ptr %2, align 8, !tbaa !696
  %3 = load ptr, ptr %2, align 8
  store ptr getelementptr inbounds inrange(-16, 40) ({ [7 x ptr] }, ptr @_ZTVN3gmx17ISimulatorElementE, i32 0, i32 0, i32 2), ptr %3, align 8, !tbaa !439
  ret void
}

; Function Attrs: mustprogress nounwind uwtable
define void @_ZN3gmx26FreeEnergyPerturbationData7ElementC2EPS0_d(ptr noundef nonnull align 8 dereferenceable(80) %0, ptr noundef %1, double noundef %2) unnamed_addr #1 align 2 {
  %4 = alloca ptr, align 8
  %5 = alloca ptr, align 8
  %6 = alloca double, align 8
  store ptr %0, ptr %4, align 8, !tbaa !4
  store ptr %1, ptr %5, align 8, !tbaa !67
  store double %2, ptr %6, align 8, !tbaa !11
  %7 = load ptr, ptr %4, align 8
  call void @_ZN3gmx17ISimulatorElementC2Ev(ptr noundef nonnull align 8 dereferenceable(8) %7) #22
  %8 = getelementptr inbounds i8, ptr %7, i64 8
  call void @_ZN3gmx23ICheckpointHelperClientC2Ev(ptr noundef nonnull align 8 dereferenceable(8) %8) #22
  %9 = getelementptr inbounds i8, ptr %7, i64 16
  call void @_ZN3gmx19IDomDecHelperClientC2Ev(ptr noundef nonnull align 8 dereferenceable(8) %9) #22
  store ptr getelementptr inbounds inrange(-16, 72) ({ [11 x ptr], [7 x ptr], [5 x ptr] }, ptr @_ZTVN3gmx26FreeEnergyPerturbationData7ElementE, i32 0, i32 0, i32 2), ptr %7, align 8, !tbaa !439
  %10 = getelementptr inbounds i8, ptr %7, i64 8
  store ptr getelementptr inbounds inrange(-16, 40) ({ [11 x ptr], [7 x ptr], [5 x ptr] }, ptr @_ZTVN3gmx26FreeEnergyPerturbationData7ElementE, i32 0, i32 1, i32 2), ptr %10, align 8, !tbaa !439
  %11 = getelementptr inbounds i8, ptr %7, i64 16
  store ptr getelementptr inbounds inrange(-16, 24) ({ [11 x ptr], [7 x ptr], [5 x ptr] }, ptr @_ZTVN3gmx26FreeEnergyPerturbationData7ElementE, i32 0, i32 2, i32 2), ptr %11, align 8, !tbaa !439
  %12 = getelementptr inbounds nuw %"class.gmx::FreeEnergyPerturbationData::Element", ptr %7, i32 0, i32 3
  %13 = load ptr, ptr %5, align 8, !tbaa !67
  store ptr %13, ptr %12, align 8, !tbaa !40
  %14 = getelementptr inbounds nuw %"class.gmx::FreeEnergyPerturbationData::Element", ptr %7, i32 0, i32 4
  %15 = load double, ptr %6, align 8, !tbaa !11
  %16 = fcmp une double %15, 0.000000e+00
  %17 = zext i1 %16 to i8
  store i8 %17, ptr %14, align 8, !tbaa !21
  %18 = getelementptr inbounds nuw %"class.gmx::FreeEnergyPerturbationData::Element", ptr %7, i32 0, i32 6
  call void @_ZNSt8optionalIN3gmx15FepStateSettingEEC2Ev(ptr noundef nonnull align 8 dereferenceable(32) %18) #22
  %19 = getelementptr inbounds nuw %"class.gmx::FreeEnergyPerturbationData::Element", ptr %7, i32 0, i32 7
  store i32 0, ptr %19, align 8, !tbaa !39
  %20 = getelementptr inbounds nuw %"class.gmx::FreeEnergyPerturbationData::Element", ptr %7, i32 0, i32 8
  store i8 0, ptr %20, align 4, !tbaa !64
  ret void
}