; Function Attrs: mustprogress nofree norecurse nosync nounwind willreturn memory(argmem: write) uwtable
define void @_ZN3gmx26FreeEnergyPerturbationData7ElementC2EPS0_d(ptr noundef nonnull writeonly align 8 captures(none) dereferenceable(80) initializes((0, 33), (64, 65), (72, 77)) %0, ptr noundef %1, double noundef %2) unnamed_addr #3 align 2 {
  %4 = getelementptr inbounds nuw i8, ptr %0, i64 8
  %5 = getelementptr inbounds nuw i8, ptr %0, i64 16
  store ptr getelementptr inbounds nuw inrange(-16, 72) (i8, ptr @_ZTVN3gmx26FreeEnergyPerturbationData7ElementE, i64 16), ptr %0, align 8, !tbaa !213
  store ptr getelementptr inbounds nuw inrange(-16, 40) (i8, ptr @_ZTVN3gmx26FreeEnergyPerturbationData7ElementE, i64 104), ptr %4, align 8, !tbaa !213
  store ptr getelementptr inbounds nuw inrange(-16, 24) (i8, ptr @_ZTVN3gmx26FreeEnergyPerturbationData7ElementE, i64 160), ptr %5, align 8, !tbaa !213
  %6 = getelementptr inbounds nuw i8, ptr %0, i64 24
  store ptr %1, ptr %6, align 8, !tbaa !34
  %7 = getelementptr inbounds nuw i8, ptr %0, i64 32
  %8 = fcmp une double %2, 0.000000e+00
  %9 = zext i1 %8 to i8
  store i8 %9, ptr %7, align 8, !tbaa !11
  %10 = getelementptr inbounds nuw i8, ptr %0, i64 64
  store i8 0, ptr %10, align 8, !tbaa !4
  %11 = getelementptr inbounds nuw i8, ptr %0, i64 72
  store i32 0, ptr %11, align 8, !tbaa !201
  %12 = getelementptr inbounds nuw i8, ptr %0, i64 76
  store i8 0, ptr %12, align 4, !tbaa !76
  ret void
}